CCS PCM C Compiler, Version 5.015, 5967               01-Jul-16 11:13

               Filename:   E:\Data\CCS for pic\Test kit pic\Pwm\test lcd.lst

               ROM used:   100 words (1%)
                           Largest free fragment is 2048
               RAM used:   7 (2%) at main() level
                           8 (2%) worst case
               Stack used: 1 locations
               Stack size: 8

*
0000:  MOVLW  00
0001:  MOVWF  0A
0002:  GOTO   018
0003:  NOP
.................... #include <16F877A.h> 
.................... //////////// Standard Header file for the PIC16F877A device //////////////// 
.................... /////////////////////////////////////////////////////////////////////////// 
.................... ////        (C) Copyright 1996, 2013 Custom Computer Services          //// 
.................... //// This source code may only be used by licensed users of the CCS C  //// 
.................... //// compiler.  This source code may only be distributed to other      //// 
.................... //// licensed users of the CCS C compiler.  No other use, reproduction //// 
.................... //// or distribution is permitted without written permission.          //// 
.................... //// Derivative programs created using this software in object code    //// 
.................... //// form are not restricted in any way.                               //// 
.................... /////////////////////////////////////////////////////////////////////////// 
.................... #device PIC16F877A 
....................  
.................... #list 
....................  
.................... //#include <def_877a.h> 
.................... #device *=16 adc=10 
.................... #fuses XT, NOWDT, NOPROTECT, BROWNOUT, PUT, NOLVP  
.................... #use delay(crystal=20000000) 
0004:  MOVLW  22
0005:  MOVWF  04
0006:  BCF    03.7
0007:  MOVF   00,W
0008:  BTFSC  03.2
0009:  GOTO   017
000A:  MOVLW  06
000B:  MOVWF  78
000C:  CLRF   77
000D:  DECFSZ 77,F
000E:  GOTO   00D
000F:  DECFSZ 78,F
0010:  GOTO   00C
0011:  MOVLW  7B
0012:  MOVWF  77
0013:  DECFSZ 77,F
0014:  GOTO   013
0015:  DECFSZ 00,F
0016:  GOTO   00A
0017:  RETURN
....................  
.................... void main(){ 
0018:  MOVF   03,W
0019:  ANDLW  1F
001A:  MOVWF  03
001B:  MOVLW  FF
001C:  MOVWF  20
001D:  BSF    03.5
001E:  BSF    1F.0
001F:  BSF    1F.1
0020:  BSF    1F.2
0021:  BCF    1F.3
0022:  MOVLW  07
0023:  MOVWF  1C
0024:  BCF    03.7
....................   setup_timer_2(T2_DIV_BY_16,255,1); 
0025:  MOVLW  00
0026:  MOVWF  78
0027:  IORLW  06
0028:  BCF    03.5
0029:  MOVWF  12
002A:  MOVLW  FF
002B:  BSF    03.5
002C:  MOVWF  12
....................   setup_ccp2(CCP_PWM); 
002D:  BCF    03.5
002E:  BCF    20.1
002F:  MOVF   20,W
0030:  BSF    03.5
0031:  MOVWF  07
0032:  BCF    03.5
0033:  BCF    07.1
0034:  MOVLW  0C
0035:  MOVWF  1D
....................  
....................    while(true){ 
....................      set_pwm2_duty(0); 
0036:  CLRF   1B
....................   delay_ms(3000); 
0037:  MOVLW  0C
0038:  MOVWF  21
0039:  MOVLW  FA
003A:  MOVWF  22
003B:  CALL   004
003C:  DECFSZ 21,F
003D:  GOTO   039
....................     set_pwm2_duty(64); 
003E:  MOVLW  40
003F:  MOVWF  1B
....................   delay_ms(3000); 
0040:  MOVLW  0C
0041:  MOVWF  21
0042:  MOVLW  FA
0043:  MOVWF  22
0044:  CALL   004
0045:  DECFSZ 21,F
0046:  GOTO   042
....................     set_pwm2_duty(128); 
0047:  MOVLW  80
0048:  MOVWF  1B
....................   delay_ms(3000); 
0049:  MOVLW  0C
004A:  MOVWF  21
004B:  MOVLW  FA
004C:  MOVWF  22
004D:  CALL   004
004E:  DECFSZ 21,F
004F:  GOTO   04B
....................     set_pwm2_duty(192); 
0050:  MOVLW  C0
0051:  MOVWF  1B
....................   delay_ms(3000); 
0052:  MOVLW  0C
0053:  MOVWF  21
0054:  MOVLW  FA
0055:  MOVWF  22
0056:  CALL   004
0057:  DECFSZ 21,F
0058:  GOTO   054
....................     set_pwm2_duty(255); 
0059:  MOVLW  FF
005A:  MOVWF  1B
....................   delay_ms(3000); 
005B:  MOVLW  0C
005C:  MOVWF  21
005D:  MOVLW  FA
005E:  MOVWF  22
005F:  CALL   004
0060:  DECFSZ 21,F
0061:  GOTO   05D
0062:  GOTO   036
....................     
....................     }   
.................... } 
....................  
0063:  SLEEP

Configuration Fuses:
   Word  1: 3F72   HS NOWDT PUT BROWNOUT NOLVP NOCPD NOWRT NODEBUG NOPROTECT
